target datalayout = "e-m:e-p270:32:32-p271:32:32-p272:64:64-i64:64-i128:128-f80:128-n8:16:32:64-S128"
target triple = "x86_64-pc-linux-gnu"

; Function Attrs: mustprogress nounwind uwtable
define noundef i64 @_ZN6casadi10Integrator10adjmap_outEx(i64 noundef %0) #5 align 2 {
  %2 = alloca i64, align 8
  %3 = alloca i64, align 8
  store i64 %0, ptr %3, align 8
  %4 = load i64, ptr %3, align 8
  %5 = trunc i64 %4 to i32
  switch i32 %5, label %13 [
    i32 0, label %6
    i32 1, label %7
    i32 2, label %8
    i32 3, label %9
    i32 4, label %10
    i32 5, label %11
    i32 6, label %12
  ]

6:                                                ; preds = %1
  store i64 3, ptr %2, align 8
  br label %15

7:                                                ; preds = %1
  store i64 4, ptr %2, align 8
  br label %15

8:                                                ; preds = %1
  store i64 5, ptr %2, align 8
  br label %15

9:                                                ; preds = %1
  store i64 6, ptr %2, align 8
  br label %15

10:                                               ; preds = %1
  store i64 0, ptr %2, align 8
  br label %15

11:                                               ; preds = %1
  store i64 1, ptr %2, align 8
  br label %15

12:                                               ; preds = %1
  store i64 2, ptr %2, align 8
  br label %15

13:                                               ; preds = %1
  br label %14

14:                                               ; preds = %13
  store i64 -1, ptr %2, align 8
  br label %15

15:                                               ; preds = %14, %12, %11, %10, %9, %8, %7, %6
  %16 = load i64, ptr %2, align 8
  ret i64 %16
}