; Function Attrs: mustprogress nofree norecurse nosync nounwind willreturn memory(none) uwtable
define noundef i64 @_ZN6casadi10Integrator10adjmap_outEx(i64 noundef %0) local_unnamed_addr #5 align 2 {
  %2 = trunc i64 %0 to i32
  %3 = icmp ult i32 %2, 7
  br i1 %3, label %switch.lookup, label %5

switch.lookup:                                    ; preds = %1
  %4 = and i64 %0, 7
  %switch.gep = getelementptr inbounds [7 x i64], ptr @switch.table._ZN6casadi10Integrator10adjmap_outEx, i64 0, i64 %4
  %switch.load = load i64, ptr %switch.gep, align 8
  br label %5

5:                                                ; preds = %1, %switch.lookup
  %.0 = phi i64 [ %switch.load, %switch.lookup ], [ -1, %1 ]
  ret i64 %.0
}